; Function Attrs: nounwind uwtable
define ptr @l_Lean_Elab_Command_findCommonPrefix_go(ptr noundef %0, ptr noundef %1) local_unnamed_addr #0 {
  br label %lean_dec.exit

lean_dec.exit:                                    ; preds = %lean_dec.exit.backedge, %2
  %.019 = phi ptr [ %1, %2 ], [ %42, %lean_dec.exit.backedge ]
  %.018 = phi ptr [ %0, %2 ], [ %60, %lean_dec.exit.backedge ]
  %3 = ptrtoint ptr %.018 to i64
  %4 = and i64 %3, 1
  %.not.i27 = icmp eq i64 %4, 0
  br i1 %.not.i27, label %8, label %5

5:                                                ; preds = %lean_dec.exit
  %6 = lshr i64 %3, 1
  %7 = trunc i64 %6 to i32
  br label %lean_obj_tag.exit

8:                                                ; preds = %lean_dec.exit
  %9 = getelementptr i8, ptr %.018, i64 4
  %.val.i = load i32, ptr %9, align 4
  %10 = lshr i32 %.val.i, 24
  br label %lean_obj_tag.exit

lean_obj_tag.exit:                                ; preds = %5, %8
  %.0.i = phi i32 [ %7, %5 ], [ %10, %8 ]
  %11 = icmp eq i32 %.0.i, 0
  %12 = ptrtoint ptr %.019 to i64
  %13 = and i64 %12, 1
  %.not40 = icmp eq i64 %13, 0
  br i1 %11, label %14, label %22

14:                                               ; preds = %lean_obj_tag.exit
  br i1 %.not40, label %15, label %lean_dec.exit22

15:                                               ; preds = %14
  %16 = load i32, ptr %.019, align 4, !tbaa !4
  %17 = icmp sgt i32 %16, 1
  br i1 %17, label %18, label %20, !prof !11

18:                                               ; preds = %15
  %19 = add nsw i32 %16, -1
  store i32 %19, ptr %.019, align 4, !tbaa !4
  br label %lean_dec.exit22

20:                                               ; preds = %15
  %.not.i = icmp eq i32 %16, 0
  br i1 %.not.i, label %lean_dec.exit22, label %21

21:                                               ; preds = %20
  tail call void @lean_dec_ref_cold(ptr noundef nonnull %.019) #6
  br label %lean_dec.exit22

22:                                               ; preds = %lean_obj_tag.exit
  br i1 %.not40, label %26, label %23

23:                                               ; preds = %22
  %24 = lshr i64 %12, 1
  %25 = trunc i64 %24 to i32
  br label %lean_obj_tag.exit31

26:                                               ; preds = %22
  %27 = getelementptr i8, ptr %.019, i64 4
  %.val.i30 = load i32, ptr %27, align 4
  %28 = lshr i32 %.val.i30, 24
  br label %lean_obj_tag.exit31

lean_obj_tag.exit31:                              ; preds = %23, %26
  %.0.i29 = phi i32 [ %25, %23 ], [ %28, %26 ]
  %29 = icmp eq i32 %.0.i29, 0
  br i1 %29, label %lean_dec.exit22, label %30

30:                                               ; preds = %lean_obj_tag.exit31
  %31 = getelementptr inbounds nuw i8, ptr %.019, i64 8
  %32 = load ptr, ptr %31, align 8, !tbaa !9
  %33 = ptrtoint ptr %32 to i64
  %34 = and i64 %33, 1
  %.not = icmp eq i64 %34, 0
  br i1 %.not, label %35, label %lean_inc.exit20

35:                                               ; preds = %30
  %.val.i32 = load i32, ptr %32, align 4, !tbaa !4
  %36 = icmp sgt i32 %.val.i32, 0
  br i1 %36, label %37, label %39, !prof !11

37:                                               ; preds = %35
  %38 = add nuw i32 %.val.i32, 1
  store i32 %38, ptr %32, align 4, !tbaa !4
  br label %lean_inc.exit20

39:                                               ; preds = %35
  %.not.i33 = icmp eq i32 %.val.i32, 0
  br i1 %.not.i33, label %lean_inc.exit20, label %40

40:                                               ; preds = %39
  tail call void @lean_inc_ref_cold(ptr noundef nonnull %32) #6
  br label %lean_inc.exit20

lean_inc.exit20:                                  ; preds = %40, %39, %37, %30
  %41 = getelementptr inbounds nuw i8, ptr %.019, i64 16
  %42 = load ptr, ptr %41, align 8, !tbaa !9
  %43 = ptrtoint ptr %42 to i64
  %44 = and i64 %43, 1
  %.not37 = icmp eq i64 %44, 0
  br i1 %.not37, label %45, label %lean_inc.exit

45:                                               ; preds = %lean_inc.exit20
  %.val.i34 = load i32, ptr %42, align 4, !tbaa !4
  %46 = icmp sgt i32 %.val.i34, 0
  br i1 %46, label %47, label %49, !prof !11

47:                                               ; preds = %45
  %48 = add nuw i32 %.val.i34, 1
  store i32 %48, ptr %42, align 4, !tbaa !4
  br label %lean_inc.exit

49:                                               ; preds = %45
  %.not.i35 = icmp eq i32 %.val.i34, 0
  br i1 %.not.i35, label %lean_inc.exit, label %50

50:                                               ; preds = %49
  tail call void @lean_inc_ref_cold(ptr noundef nonnull %42) #6
  br label %lean_inc.exit

lean_inc.exit:                                    ; preds = %50, %49, %47, %lean_inc.exit20
  br i1 %.not40, label %51, label %lean_dec.exit21

51:                                               ; preds = %lean_inc.exit
  %52 = load i32, ptr %.019, align 4, !tbaa !4
  %53 = icmp sgt i32 %52, 1
  br i1 %53, label %54, label %56, !prof !11

54:                                               ; preds = %51
  %55 = add nsw i32 %52, -1
  store i32 %55, ptr %.019, align 4, !tbaa !4
  br label %lean_dec.exit21

56:                                               ; preds = %51
  %.not.i23 = icmp eq i32 %52, 0
  br i1 %.not.i23, label %lean_dec.exit21, label %57

57:                                               ; preds = %56
  tail call void @lean_dec_ref_cold(ptr noundef nonnull %.019) #6
  br label %lean_dec.exit21

lean_dec.exit21:                                  ; preds = %57, %56, %54, %lean_inc.exit
  %58 = tail call ptr @l_Lean_Name_components(ptr noundef %.018) #6
  %59 = tail call ptr @l_Lean_Name_components(ptr noundef %32) #6
  %60 = tail call ptr @l_Lean_Elab_Command_findCommonPrefix_findCommon(ptr noundef %58, ptr noundef %59)
  %61 = ptrtoint ptr %59 to i64
  %62 = and i64 %61, 1
  %.not39 = icmp eq i64 %62, 0
  br i1 %.not39, label %63, label %lean_dec.exit.backedge

63:                                               ; preds = %lean_dec.exit21
  %64 = load i32, ptr %59, align 4, !tbaa !4
  %65 = icmp sgt i32 %64, 1
  br i1 %65, label %66, label %68, !prof !11

66:                                               ; preds = %63
  %67 = add nsw i32 %64, -1
  store i32 %67, ptr %59, align 4, !tbaa !4
  br label %lean_dec.exit.backedge

68:                                               ; preds = %63
  %.not.i25 = icmp eq i32 %64, 0
  br i1 %.not.i25, label %lean_dec.exit.backedge, label %69

69:                                               ; preds = %68
  tail call void @lean_dec_ref_cold(ptr noundef nonnull %59) #6
  br label %lean_dec.exit.backedge

lean_dec.exit.backedge:                           ; preds = %69, %68, %66, %lean_dec.exit21
  br label %lean_dec.exit

lean_dec.exit22:                                  ; preds = %lean_obj_tag.exit31, %14, %18, %20, %21
  %.0 = phi ptr [ inttoptr (i64 1 to ptr), %21 ], [ inttoptr (i64 1 to ptr), %20 ], [ inttoptr (i64 1 to ptr), %18 ], [ inttoptr (i64 1 to ptr), %14 ], [ %.018, %lean_obj_tag.exit31 ]
  ret ptr %.0
}